target datalayout = "e-m:e-p270:32:32-p271:32:32-p272:64:64-i64:64-i128:128-f80:128-n8:16:32:64-S128"
target triple = "x86_64-pc-linux-gnu"

%struct.ssl_st = type { i32, i16, i16, ptr, ptr, ptr, ptr, ptr, i32, i32, ptr, ptr, i32, i32, ptr, ptr, ptr, ptr, ptr, ptr, ptr, ptr, i32, i32, [32 x i8], ptr, ptr, ptr, ptr, ptr, ptr, ptr, i64, %struct.crypto_ex_data_st, ptr, i32, i32, i32, i32, i16, ptr, i32, i64, ptr, ptr, ptr, ptr, ptr, ptr, i32, i32, ptr, ptr, i8, i8, i32 }
%struct.crypto_ex_data_st = type { ptr }
%struct.buf_mem_st = type { i64, ptr, i64 }
%struct.ssl_protocol_method_st = type { i8, ptr, ptr, ptr, ptr, ptr, ptr, ptr, ptr, ptr, ptr, ptr, i32, ptr, ptr }
%struct.ssl3_state_st = type { [8 x i8], [8 x i8], [32 x i8], [32 x i8], i8, i8, %struct.ssl3_buffer_st, %struct.ssl3_buffer_st, %struct.ssl3_record_st, i8, i32, i32, i32, i32, ptr, ptr, %struct.env_md_ctx_st, %struct.env_md_ctx_st, i8, i32, [2 x i8], i32, i8, i8, ptr, ptr, ptr, %struct.anon, [64 x i8], i8, [64 x i8], i8, i32, i32, ptr, i64, ptr, i64, i8, [64 x i8] }
%struct.ssl3_buffer_st = type { ptr, i16, i16, i16 }
%struct.ssl3_record_st = type { i8, i16, ptr }
%struct.env_md_ctx_st = type { ptr, ptr, ptr, ptr }
%struct.anon = type { [64 x i8], i32, [64 x i8], i32, i64, i32, ptr, i32, i32, %union.anon, %union.anon.0, i8, i32, ptr, ptr, i64, ptr, i8, i8, i8, i8, i32, i8, ptr, i64, i8, ptr, i8, i8, i8, %struct.ssl_ecdh_ctx_st, ptr, i16 }
%union.anon = type { i32 }
%union.anon.0 = type { i16 }
%struct.ssl_ecdh_ctx_st = type { ptr, ptr }
%struct.ssl3_enc_method = type { ptr, ptr, ptr }
%struct.ssl_session_st = type { i32, i32, i32, i32, [48 x i8], i32, [32 x i8], i32, [32 x i8], ptr, ptr, ptr, i64, i64, i64, ptr, %struct.crypto_ex_data_st, ptr, ptr, ptr, ptr, i64, i64, ptr, i64, ptr, [32 x i8], [64 x i8], i32, i32, i8 }

; Function Attrs: nounwind uwtable
define hidden i32 @ssl3_send_finished(ptr noundef %0, i32 noundef %1, i32 noundef %2) #0 {
  %4 = alloca i32, align 4
  %5 = alloca ptr, align 8
  %6 = alloca i32, align 4
  %7 = alloca i32, align 4
  %8 = alloca ptr, align 8
  %9 = alloca i32, align 4
  %10 = alloca i32, align 4
  store ptr %0, ptr %5, align 8, !tbaa !6
  store i32 %1, ptr %6, align 4, !tbaa !11
  store i32 %2, ptr %7, align 4, !tbaa !11
  call void @llvm.lifetime.start.p0(i64 8, ptr %8) #6
  call void @llvm.lifetime.start.p0(i64 4, ptr %9) #6
  %11 = load ptr, ptr %5, align 8, !tbaa !6
  %12 = getelementptr inbounds nuw %struct.ssl_st, ptr %11, i32 0, i32 9
  %13 = load i32, ptr %12, align 4, !tbaa !45
  %14 = load i32, ptr %6, align 4, !tbaa !11
  %15 = icmp eq i32 %13, %14
  br i1 %15, label %16, label %153

16:                                               ; preds = %3
  %17 = load ptr, ptr %5, align 8, !tbaa !6
  %18 = getelementptr inbounds nuw %struct.ssl_st, ptr %17, i32 0, i32 10
  %19 = load ptr, ptr %18, align 8, !tbaa !13
  %20 = getelementptr inbounds nuw %struct.buf_mem_st, ptr %19, i32 0, i32 1
  %21 = load ptr, ptr %20, align 8, !tbaa !38
  %22 = load ptr, ptr %5, align 8, !tbaa !6
  %23 = getelementptr inbounds nuw %struct.ssl_st, ptr %22, i32 0, i32 3
  %24 = load ptr, ptr %23, align 8, !tbaa !46
  %25 = getelementptr inbounds nuw %struct.ssl_protocol_method_st, ptr %24, i32 0, i32 12
  %26 = load i32, ptr %25, align 8, !tbaa !47
  %27 = zext i32 %26 to i64
  %28 = getelementptr inbounds nuw i8, ptr %21, i64 %27
  store ptr %28, ptr %8, align 8, !tbaa !49
  %29 = load ptr, ptr %5, align 8, !tbaa !6
  %30 = getelementptr inbounds nuw %struct.ssl_st, ptr %29, i32 0, i32 14
  %31 = load ptr, ptr %30, align 8, !tbaa !50
  %32 = getelementptr inbounds nuw %struct.ssl3_state_st, ptr %31, i32 0, i32 26
  %33 = load ptr, ptr %32, align 8, !tbaa !51
  %34 = getelementptr inbounds nuw %struct.ssl3_enc_method, ptr %33, i32 0, i32 1
  %35 = load ptr, ptr %34, align 8, !tbaa !65
  %36 = load ptr, ptr %5, align 8, !tbaa !6
  %37 = load ptr, ptr %5, align 8, !tbaa !6
  %38 = getelementptr inbounds nuw %struct.ssl_st, ptr %37, i32 0, i32 54
  %39 = load i8, ptr %38, align 1
  %40 = lshr i8 %39, 1
  %41 = and i8 %40, 1
  %42 = zext i8 %41 to i32
  %43 = load ptr, ptr %5, align 8, !tbaa !6
  %44 = getelementptr inbounds nuw %struct.ssl_st, ptr %43, i32 0, i32 14
  %45 = load ptr, ptr %44, align 8, !tbaa !50
  %46 = getelementptr inbounds nuw %struct.ssl3_state_st, ptr %45, i32 0, i32 27
  %47 = getelementptr inbounds nuw %struct.anon, ptr %46, i32 0, i32 0
  %48 = getelementptr inbounds [64 x i8], ptr %47, i64 0, i64 0
  %49 = call i32 %35(ptr noundef %36, i32 noundef %42, ptr noundef %48)
  store i32 %49, ptr %9, align 4, !tbaa !11
  %50 = load i32, ptr %9, align 4, !tbaa !11
  %51 = icmp eq i32 %50, 0
  br i1 %51, label %52, label %53

52:                                               ; preds = %16
  store i32 0, ptr %4, align 4
  store i32 1, ptr %10, align 4
  br label %161

53:                                               ; preds = %16
  %54 = load i32, ptr %9, align 4, !tbaa !11
  %55 = load ptr, ptr %5, align 8, !tbaa !6
  %56 = getelementptr inbounds nuw %struct.ssl_st, ptr %55, i32 0, i32 14
  %57 = load ptr, ptr %56, align 8, !tbaa !50
  %58 = getelementptr inbounds nuw %struct.ssl3_state_st, ptr %57, i32 0, i32 27
  %59 = getelementptr inbounds nuw %struct.anon, ptr %58, i32 0, i32 1
  store i32 %54, ptr %59, align 8, !tbaa !67
  %60 = load ptr, ptr %8, align 8, !tbaa !49
  %61 = load ptr, ptr %5, align 8, !tbaa !6
  %62 = getelementptr inbounds nuw %struct.ssl_st, ptr %61, i32 0, i32 14
  %63 = load ptr, ptr %62, align 8, !tbaa !50
  %64 = getelementptr inbounds nuw %struct.ssl3_state_st, ptr %63, i32 0, i32 27
  %65 = getelementptr inbounds nuw %struct.anon, ptr %64, i32 0, i32 0
  %66 = getelementptr inbounds [64 x i8], ptr %65, i64 0, i64 0
  %67 = load i32, ptr %9, align 4, !tbaa !11
  %68 = sext i32 %67 to i64
  call void @llvm.memcpy.p0.p0.i64(ptr align 1 %60, ptr align 8 %66, i64 %68, i1 false)
  %69 = load ptr, ptr %5, align 8, !tbaa !6
  %70 = load ptr, ptr %5, align 8, !tbaa !6
  %71 = getelementptr inbounds nuw %struct.ssl_st, ptr %70, i32 0, i32 14
  %72 = load ptr, ptr %71, align 8, !tbaa !50
  %73 = getelementptr inbounds nuw %struct.ssl3_state_st, ptr %72, i32 0, i32 3
  %74 = getelementptr inbounds [32 x i8], ptr %73, i64 0, i64 0
  %75 = load ptr, ptr %5, align 8, !tbaa !6
  %76 = getelementptr inbounds nuw %struct.ssl_st, ptr %75, i32 0, i32 25
  %77 = load ptr, ptr %76, align 8, !tbaa !68
  %78 = getelementptr inbounds nuw %struct.ssl_session_st, ptr %77, i32 0, i32 4
  %79 = getelementptr inbounds [48 x i8], ptr %78, i64 0, i64 0
  %80 = load ptr, ptr %5, align 8, !tbaa !6
  %81 = getelementptr inbounds nuw %struct.ssl_st, ptr %80, i32 0, i32 25
  %82 = load ptr, ptr %81, align 8, !tbaa !68
  %83 = getelementptr inbounds nuw %struct.ssl_session_st, ptr %82, i32 0, i32 3
  %84 = load i32, ptr %83, align 4, !tbaa !69
  %85 = sext i32 %84 to i64
  %86 = call i32 @ssl_log_master_secret(ptr noundef %69, ptr noundef %74, i64 noundef 32, ptr noundef %79, i64 noundef %85)
  %87 = icmp ne i32 %86, 0
  br i1 %87, label %89, label %88

88:                                               ; preds = %53
  store i32 0, ptr %4, align 4
  store i32 1, ptr %10, align 4
  br label %161

89:                                               ; preds = %53
  %90 = load ptr, ptr %5, align 8, !tbaa !6
  %91 = getelementptr inbounds nuw %struct.ssl_st, ptr %90, i32 0, i32 54
  %92 = load i8, ptr %91, align 1
  %93 = lshr i8 %92, 1
  %94 = and i8 %93, 1
  %95 = zext i8 %94 to i32
  %96 = icmp ne i32 %95, 0
  br i1 %96, label %97, label %117

97:                                               ; preds = %89
  %98 = load ptr, ptr %5, align 8, !tbaa !6
  %99 = getelementptr inbounds nuw %struct.ssl_st, ptr %98, i32 0, i32 14
  %100 = load ptr, ptr %99, align 8, !tbaa !50
  %101 = getelementptr inbounds nuw %struct.ssl3_state_st, ptr %100, i32 0, i32 30
  %102 = getelementptr inbounds [64 x i8], ptr %101, i64 0, i64 0
  %103 = load ptr, ptr %5, align 8, !tbaa !6
  %104 = getelementptr inbounds nuw %struct.ssl_st, ptr %103, i32 0, i32 14
  %105 = load ptr, ptr %104, align 8, !tbaa !50
  %106 = getelementptr inbounds nuw %struct.ssl3_state_st, ptr %105, i32 0, i32 27
  %107 = getelementptr inbounds nuw %struct.anon, ptr %106, i32 0, i32 0
  %108 = getelementptr inbounds [64 x i8], ptr %107, i64 0, i64 0
  %109 = load i32, ptr %9, align 4, !tbaa !11
  %110 = sext i32 %109 to i64
  call void @llvm.memcpy.p0.p0.i64(ptr align 1 %102, ptr align 8 %108, i64 %110, i1 false)
  %111 = load i32, ptr %9, align 4, !tbaa !11
  %112 = trunc i32 %111 to i8
  %113 = load ptr, ptr %5, align 8, !tbaa !6
  %114 = getelementptr inbounds nuw %struct.ssl_st, ptr %113, i32 0, i32 14
  %115 = load ptr, ptr %114, align 8, !tbaa !50
  %116 = getelementptr inbounds nuw %struct.ssl3_state_st, ptr %115, i32 0, i32 31
  store i8 %112, ptr %116, align 1, !tbaa !73
  br label %137

117:                                              ; preds = %89
  %118 = load ptr, ptr %5, align 8, !tbaa !6
  %119 = getelementptr inbounds nuw %struct.ssl_st, ptr %118, i32 0, i32 14
  %120 = load ptr, ptr %119, align 8, !tbaa !50
  %121 = getelementptr inbounds nuw %struct.ssl3_state_st, ptr %120, i32 0, i32 28
  %122 = getelementptr inbounds [64 x i8], ptr %121, i64 0, i64 0
  %123 = load ptr, ptr %5, align 8, !tbaa !6
  %124 = getelementptr inbounds nuw %struct.ssl_st, ptr %123, i32 0, i32 14
  %125 = load ptr, ptr %124, align 8, !tbaa !50
  %126 = getelementptr inbounds nuw %struct.ssl3_state_st, ptr %125, i32 0, i32 27
  %127 = getelementptr inbounds nuw %struct.anon, ptr %126, i32 0, i32 0
  %128 = getelementptr inbounds [64 x i8], ptr %127, i64 0, i64 0
  %129 = load i32, ptr %9, align 4, !tbaa !11
  %130 = sext i32 %129 to i64
  call void @llvm.memcpy.p0.p0.i64(ptr align 8 %122, ptr align 8 %128, i64 %130, i1 false)
  %131 = load i32, ptr %9, align 4, !tbaa !11
  %132 = trunc i32 %131 to i8
  %133 = load ptr, ptr %5, align 8, !tbaa !6
  %134 = getelementptr inbounds nuw %struct.ssl_st, ptr %133, i32 0, i32 14
  %135 = load ptr, ptr %134, align 8, !tbaa !50
  %136 = getelementptr inbounds nuw %struct.ssl3_state_st, ptr %135, i32 0, i32 29
  store i8 %132, ptr %136, align 8, !tbaa !74
  br label %137

137:                                              ; preds = %117, %97
  %138 = load ptr, ptr %5, align 8, !tbaa !6
  %139 = getelementptr inbounds nuw %struct.ssl_st, ptr %138, i32 0, i32 3
  %140 = load ptr, ptr %139, align 8, !tbaa !46
  %141 = getelementptr inbounds nuw %struct.ssl_protocol_method_st, ptr %140, i32 0, i32 13
  %142 = load ptr, ptr %141, align 8, !tbaa !75
  %143 = load ptr, ptr %5, align 8, !tbaa !6
  %144 = load i32, ptr %9, align 4, !tbaa !11
  %145 = sext i32 %144 to i64
  %146 = call i32 %142(ptr noundef %143, i32 noundef 20, i64 noundef %145)
  %147 = icmp ne i32 %146, 0
  br i1 %147, label %149, label %148

148:                                              ; preds = %137
  store i32 0, ptr %4, align 4
  store i32 1, ptr %10, align 4
  br label %161

149:                                              ; preds = %137
  %150 = load i32, ptr %7, align 4, !tbaa !11
  %151 = load ptr, ptr %5, align 8, !tbaa !6
  %152 = getelementptr inbounds nuw %struct.ssl_st, ptr %151, i32 0, i32 9
  store i32 %150, ptr %152, align 4, !tbaa !45
  br label %153

153:                                              ; preds = %149, %3
  %154 = load ptr, ptr %5, align 8, !tbaa !6
  %155 = getelementptr inbounds nuw %struct.ssl_st, ptr %154, i32 0, i32 3
  %156 = load ptr, ptr %155, align 8, !tbaa !46
  %157 = getelementptr inbounds nuw %struct.ssl_protocol_method_st, ptr %156, i32 0, i32 14
  %158 = load ptr, ptr %157, align 8, !tbaa !76
  %159 = load ptr, ptr %5, align 8, !tbaa !6
  %160 = call i32 %158(ptr noundef %159)
  store i32 %160, ptr %4, align 4
  store i32 1, ptr %10, align 4
  br label %161

161:                                              ; preds = %153, %148, %88, %52
  call void @llvm.lifetime.end.p0(i64 4, ptr %9) #6
  call void @llvm.lifetime.end.p0(i64 8, ptr %8) #6
  %162 = load i32, ptr %4, align 4
  ret i32 %162
}