; Function Attrs: nounwind uwtable
define hidden i32 @ssl3_send_finished(ptr noundef %0, i32 noundef %1, i32 noundef %2) local_unnamed_addr #0 {
  %4 = getelementptr inbounds nuw i8, ptr %0, i64 52
  %5 = load i32, ptr %4, align 4, !tbaa !42
  %6 = icmp eq i32 %5, %1
  br i1 %6, label %7, label %66

7:                                                ; preds = %3
  %8 = getelementptr inbounds nuw i8, ptr %0, i64 56
  %9 = load ptr, ptr %8, align 8, !tbaa !6
  %10 = getelementptr inbounds nuw i8, ptr %9, i64 8
  %11 = load ptr, ptr %10, align 8, !tbaa !35
  %12 = getelementptr inbounds nuw i8, ptr %0, i64 8
  %13 = load ptr, ptr %12, align 8, !tbaa !43
  %14 = getelementptr inbounds nuw i8, ptr %13, i64 96
  %15 = load i32, ptr %14, align 8, !tbaa !44
  %16 = getelementptr inbounds nuw i8, ptr %0, i64 80
  %17 = load ptr, ptr %16, align 8, !tbaa !46
  %18 = getelementptr inbounds nuw i8, ptr %17, i64 280
  %19 = load ptr, ptr %18, align 8, !tbaa !47
  %20 = getelementptr inbounds nuw i8, ptr %19, i64 8
  %21 = load ptr, ptr %20, align 8, !tbaa !61
  %22 = getelementptr inbounds nuw i8, ptr %0, i64 385
  %23 = load i8, ptr %22, align 1
  %24 = lshr i8 %23, 1
  %25 = and i8 %24, 1
  %26 = zext nneg i8 %25 to i32
  %27 = getelementptr inbounds nuw i8, ptr %17, i64 288
  %28 = tail call i32 %21(ptr noundef nonnull %0, i32 noundef %26, ptr noundef nonnull %27) #7
  %29 = icmp eq i32 %28, 0
  br i1 %29, label %72, label %30

30:                                               ; preds = %7
  %31 = zext i32 %15 to i64
  %32 = getelementptr inbounds nuw i8, ptr %11, i64 %31
  %33 = load ptr, ptr %16, align 8, !tbaa !46
  %34 = getelementptr inbounds nuw i8, ptr %33, i64 352
  store i32 %28, ptr %34, align 8, !tbaa !63
  %35 = getelementptr inbounds nuw i8, ptr %33, i64 288
  %36 = sext i32 %28 to i64
  tail call void @llvm.memcpy.p0.p0.i64(ptr align 1 %32, ptr nonnull align 8 %35, i64 %36, i1 false)
  %37 = load ptr, ptr %16, align 8, !tbaa !46
  %38 = getelementptr inbounds nuw i8, ptr %37, i64 48
  %39 = getelementptr inbounds nuw i8, ptr %0, i64 184
  %40 = load ptr, ptr %39, align 8, !tbaa !64
  %41 = getelementptr inbounds nuw i8, ptr %40, i64 16
  %42 = getelementptr inbounds nuw i8, ptr %40, i64 12
  %43 = load i32, ptr %42, align 4, !tbaa !65
  %44 = sext i32 %43 to i64
  %45 = tail call i32 @ssl_log_master_secret(ptr noundef nonnull %0, ptr noundef nonnull %38, i64 noundef 32, ptr noundef nonnull %41, i64 noundef %44) #7
  %.not = icmp eq i32 %45, 0
  br i1 %.not, label %72, label %46

46:                                               ; preds = %30
  %47 = load i8, ptr %22, align 1
  %48 = and i8 %47, 2
  %.not37 = icmp eq i8 %48, 0
  %49 = load ptr, ptr %16, align 8, !tbaa !46
  %50 = getelementptr inbounds nuw i8, ptr %49, i64 288
  %51 = trunc i32 %28 to i8
  br i1 %.not37, label %56, label %52

52:                                               ; preds = %46
  %53 = getelementptr inbounds nuw i8, ptr %49, i64 657
  tail call void @llvm.memcpy.p0.p0.i64(ptr nonnull align 1 %53, ptr nonnull align 8 %50, i64 %36, i1 false)
  %54 = load ptr, ptr %16, align 8, !tbaa !46
  %55 = getelementptr inbounds nuw i8, ptr %54, i64 721
  store i8 %51, ptr %55, align 1, !tbaa !69
  br label %60

56:                                               ; preds = %46
  %57 = getelementptr inbounds nuw i8, ptr %49, i64 592
  tail call void @llvm.memcpy.p0.p0.i64(ptr nonnull align 8 %57, ptr nonnull align 8 %50, i64 %36, i1 false)
  %58 = load ptr, ptr %16, align 8, !tbaa !46
  %59 = getelementptr inbounds nuw i8, ptr %58, i64 656
  store i8 %51, ptr %59, align 8, !tbaa !70
  br label %60

60:                                               ; preds = %56, %52
  %61 = load ptr, ptr %12, align 8, !tbaa !43
  %62 = getelementptr inbounds nuw i8, ptr %61, i64 104
  %63 = load ptr, ptr %62, align 8, !tbaa !71
  %64 = tail call i32 %63(ptr noundef nonnull %0, i32 noundef 20, i64 noundef %36) #7
  %.not38 = icmp eq i32 %64, 0
  br i1 %.not38, label %72, label %65

65:                                               ; preds = %60
  store i32 %2, ptr %4, align 4, !tbaa !42
  br label %66

66:                                               ; preds = %65, %3
  %67 = getelementptr inbounds nuw i8, ptr %0, i64 8
  %68 = load ptr, ptr %67, align 8, !tbaa !43
  %69 = getelementptr inbounds nuw i8, ptr %68, i64 112
  %70 = load ptr, ptr %69, align 8, !tbaa !72
  %71 = tail call i32 %70(ptr noundef nonnull %0) #7
  br label %72

72:                                               ; preds = %60, %30, %7, %66
  %.0 = phi i32 [ %71, %66 ], [ 0, %7 ], [ 0, %30 ], [ 0, %60 ]
  ret i32 %.0
}